; Function Attrs: nounwind uwtable
define dso_local ptr @rbt_find_less(ptr noundef readonly captures(none) %0, ptr noundef %1, i1 noundef zeroext %2) local_unnamed_addr #0 {
  %.02026 = load ptr, ptr %0, align 8
  %.not27 = icmp eq ptr %.02026, @sentinel
  br i1 %.not27, label %.thread, label %.lr.ph

.lr.ph:                                           ; preds = %3
  %4 = getelementptr inbounds nuw i8, ptr %0, i64 16
  %5 = getelementptr inbounds nuw i8, ptr %0, i64 48
  br i1 %2, label %.lr.ph.split, label %.lr.ph.split.us

.lr.ph.split.us:                                  ; preds = %.lr.ph, %.lr.ph.split.us
  %.02029.us = phi ptr [ %.020.us, %.lr.ph.split.us ], [ %.02026, %.lr.ph ]
  %.01728.us = phi ptr [ %.219.us, %.lr.ph.split.us ], [ null, %.lr.ph ]
  %6 = load ptr, ptr %4, align 8
  %7 = load ptr, ptr %5, align 8
  %8 = tail call i32 %6(ptr noundef %1, ptr noundef %.02029.us, ptr noundef %7) #7
  %9 = icmp sgt i32 %8, 0
  %.222.in.v.us = select i1 %9, i64 16, i64 8
  %.222.in.us = getelementptr inbounds nuw i8, ptr %.02029.us, i64 %.222.in.v.us
  %.219.us = select i1 %9, ptr %.02029.us, ptr %.01728.us
  %.020.us = load ptr, ptr %.222.in.us, align 8
  %.not.us = icmp eq ptr %.020.us, @sentinel
  br i1 %.not.us, label %.thread, label %.lr.ph.split.us

.lr.ph.split:                                     ; preds = %.lr.ph, %14
  %.02029 = phi ptr [ %.020, %14 ], [ %.02026, %.lr.ph ]
  %.01728 = phi ptr [ %.219, %14 ], [ null, %.lr.ph ]
  %10 = load ptr, ptr %4, align 8
  %11 = load ptr, ptr %5, align 8
  %12 = tail call i32 %10(ptr noundef %1, ptr noundef %.02029, ptr noundef %11) #7
  %13 = icmp eq i32 %12, 0
  br i1 %13, label %.thread, label %14

14:                                               ; preds = %.lr.ph.split
  %15 = icmp sgt i32 %12, 0
  %.222.in.v = select i1 %15, i64 16, i64 8
  %.222.in = getelementptr inbounds nuw i8, ptr %.02029, i64 %.222.in.v
  %.219 = select i1 %15, ptr %.02029, ptr %.01728
  %.020 = load ptr, ptr %.222.in, align 8
  %.not = icmp eq ptr %.020, @sentinel
  br i1 %.not, label %.thread, label %.lr.ph.split

.thread:                                          ; preds = %.lr.ph.split.us, %14, %.lr.ph.split, %3
  %.2 = phi ptr [ null, %3 ], [ %.02029, %.lr.ph.split ], [ %.219, %14 ], [ %.219.us, %.lr.ph.split.us ]
  ret ptr %.2
}